TN:
SF:/home/essam/Documents/projects/nodecpp-rational/include/rational.h
FN:29,_ZN3esm12bad_rationalC2Ev
FN:32,_ZN3esm12bad_rationalC2EPKc
FN:73,_ZNK3esm8rationalIlE9numeratorEv
FN:73,_ZNK3esm8rationalIiE9numeratorEv
FN:74,_ZNK3esm8rationalIlE11denominatorEv
FN:74,_ZNK3esm8rationalIiE11denominatorEv
FN:179,_ZN3esm8rationalIiEC2Ev
FN:182,_ZN3esm8rationalIiEC2Ei
FN:185,_ZN3esm8rationalIiEC2Eii
FN:185,_ZN3esm8rationalIlEC2Ell
FN:191,_ZN3esm8rationalIiEC2IlEERKNS0_IT_EE
FN:207,_ZN3esm8rationalIiE9inner_gcdEiiRKi
FN:207,_ZN3esm8rationalIlE9inner_gcdEllRKl
FN:212,_ZN3esm8rationalIiE9inner_absEiRKi
FN:212,_ZN3esm8rationalIlE9inner_absElRKl
FN:217,_ZN3esm8rationalIiE13is_normalizedEiiRKiS3_
FN:226,_ZN3esm8rationalIiE9normalizeEv
FN:226,_ZN3esm8rationalIlE9normalizeEv
FN:254,_ZNK3esm8rationalIiE14test_invariantEv
FN:254,_ZNK3esm8rationalIlE14test_invariantEv
FN:262,_ZN3esm8rationalIiEaSERKi
FN:267,_ZN3esm8rationalIiE6assignERKiS3_
FN:273,_ZN3esm8rationalIiEpLERKS1_
FN:290,_ZN3esm8rationalIiEmIERKS1_
FN:307,_ZN3esm8rationalIiEmLERKS1_
FN:321,_ZN3esm8rationalIiEdVERKS1_
FN:350,_ZN3esm8rationalIiEpLERKi
FN:356,_ZN3esm8rationalIiEmIERKi
FN:362,_ZN3esm8rationalIiEmLERKi
FN:370,_ZN3esm8rationalIiEdVERKi
FN:390,_ZN3esm8rationalIiEppEv
FN:396,_ZN3esm8rationalIiEmmEv
FN:402,_ZN3esm8rationalIiEppEi
FN:409,_ZN3esm8rationalIiEmmEi
FN:417,_ZNK3esm8rationalIiEntEv
FN:423,_ZNK3esm8rationalIiEcvbEv
FN:429,_ZNK3esm8rationalIiEltERKS1_
FN:487,_ZNK3esm8rationalIiEeqERKS1_
FN:492,_ZNK3esm8rationalIiEneERKS1_
FN:498,_ZNK3esm8rationalIiEltERKi
FN:510,_ZNK3esm8rationalIiEgtERKi
FN:515,_ZNK3esm8rationalIiEeqERKi
FN:526,_ZN3esmpsIiEENS_8rationalIT_EERKS3_
FN:531,_ZN3esmngIiEENS_8rationalIT_EERKS3_
FN:537,_ZN3esmplIiEENS_8rationalIT_EERKS3_S5_
FN:544,_ZN3esmplIiEENS_8rationalIT_EERKS3_RKS2_
FN:551,_ZN3esmplIiEENS_8rationalIT_EERKS2_RKS3_
FN:558,_ZN3esmmiIiEENS_8rationalIT_EERKS3_S5_
FN:565,_ZN3esmmiIiEENS_8rationalIT_EERKS3_RKS2_
FN:572,_ZN3esmmiIiEENS_8rationalIT_EERKS2_RKS3_
FN:579,_ZN3esmmlIiEENS_8rationalIT_EERKS3_S5_
FN:586,_ZN3esmmlIiEENS_8rationalIT_EERKS3_RKS2_
FN:593,_ZN3esmmlIiEENS_8rationalIT_EERKS2_RKS3_
FN:600,_ZN3esmdvIiEENS_8rationalIT_EERKS3_S5_
FN:607,_ZN3esmdvIiEENS_8rationalIT_EERKS3_RKS2_
FN:614,_ZN3esmdvIiEENS_8rationalIT_EERKS2_RKS3_
FN:622,_ZN3esm3absIiEENS_8rationalIT_EERKS3_
FN:684,_ZN3esm13rational_castIdiEET_RKNS_8rationalIT0_EE
FNDA:4,_ZNK3esm8rationalIiEltERKi
FNDA:4,_ZN3esm8rationalIiEpLERKS1_
FNDA:3,_ZN3esm12bad_rationalC2Ev
FNDA:6,_ZN3esm8rationalIlE9inner_gcdEllRKl
FNDA:4,_ZN3esmpsIiEENS_8rationalIT_EERKS3_
FNDA:2,_ZN3esm8rationalIiEmmEv
FNDA:2,_ZN3esmmiIiEENS_8rationalIT_EERKS3_RKS2_
FNDA:3,_ZN3esmplIiEENS_8rationalIT_EERKS3_S5_
FNDA:2,_ZN3esm8rationalIiEppEv
FNDA:12,_ZN3esm8rationalIiEdVERKS1_
FNDA:1,_ZN3esm8rationalIlE9normalizeEv
FNDA:1,_ZNK3esm8rationalIiEcvbEv
FNDA:2,_ZN3esmplIiEENS_8rationalIT_EERKS3_RKS2_
FNDA:2,_ZN3esmmiIiEENS_8rationalIT_EERKS3_S5_
FNDA:12,_ZN3esmngIiEENS_8rationalIT_EERKS3_
FNDA:1,_ZN3esm8rationalIiEppEi
FNDA:84,_ZNK3esm8rationalIiE11denominatorEv
FNDA:1,_ZN3esm8rationalIiE13is_normalizedEiiRKiS3_
FNDA:1,_ZN3esm13rational_castIdiEET_RKNS_8rationalIT0_EE
FNDA:7,_ZN3esm8rationalIiEmLERKi
FNDA:4,_ZN3esmdvIiEENS_8rationalIT_EERKS3_RKS2_
FNDA:5,_ZN3esmdvIiEENS_8rationalIT_EERKS3_S5_
FNDA:61,_ZN3esm8rationalIiE9normalizeEv
FNDA:2,_ZNK3esm8rationalIlE11denominatorEv
FNDA:21,_ZN3esm8rationalIiE6assignERKiS3_
FNDA:379,_ZN3esm8rationalIiE9inner_gcdEiiRKi
FNDA:3,_ZN3esmdvIiEENS_8rationalIT_EERKS2_RKS3_
FNDA:2,_ZN3esmmlIiEENS_8rationalIT_EERKS3_RKS2_
FNDA:1,_ZN3esm8rationalIiEmmEi
FNDA:55,_ZNK3esm8rationalIiE14test_invariantEv
FNDA:2,_ZNK3esm8rationalIiEntEv
FNDA:2,_ZNK3esm8rationalIiEneERKS1_
FNDA:88,_ZNK3esm8rationalIiE9numeratorEv
FNDA:0,_ZN3esm12bad_rationalC2EPKc
FNDA:17,_ZN3esm8rationalIiEC2Ev
FNDA:2,_ZNK3esm8rationalIiEgtERKi
FNDA:33,_ZNK3esm8rationalIiEeqERKS1_
FNDA:9,_ZNK3esm8rationalIiEeqERKi
FNDA:3,_ZN3esm8rationalIiEmLERKS1_
FNDA:1,_ZNK3esm8rationalIlE14test_invariantEv
FNDA:1,_ZN3esmplIiEENS_8rationalIT_EERKS2_RKS3_
FNDA:3,_ZN3esm8rationalIiEmIERKS1_
FNDA:4,_ZN3esm8rationalIiEmIERKi
FNDA:7,_ZN3esm8rationalIiEdVERKi
FNDA:4,_ZN3esmmlIiEENS_8rationalIT_EERKS2_RKS3_
FNDA:1,_ZN3esm8rationalIlEC2Ell
FNDA:2,_ZNK3esm8rationalIlE9numeratorEv
FNDA:2,_ZN3esm8rationalIlE9inner_absElRKl
FNDA:148,_ZN3esm8rationalIiE9inner_absEiRKi
FNDA:20,_ZN3esm8rationalIiEaSERKi
FNDA:4,_ZN3esm8rationalIiEpLERKi
FNDA:2,_ZN3esm3absIiEENS_8rationalIT_EERKS3_
FNDA:22,_ZN3esm8rationalIiEC2Ei
FNDA:61,_ZN3esm8rationalIiEC2Eii
FNDA:2,_ZN3esmmlIiEENS_8rationalIT_EERKS3_S5_
FNDA:1,_ZN3esm8rationalIiEC2IlEERKNS0_IT_EE
FNDA:2,_ZNK3esm8rationalIiEltERKS1_
FNDA:1,_ZN3esmmiIiEENS_8rationalIT_EERKS2_RKS3_
FNF:58
FNH:57
DA:29,3
DA:32,0
DA:43,0
DA:46,0
DA:49,0
DA:73,90
DA:74,86
DA:179,17
DA:182,22
DA:185,62
DA:186,62
DA:187,61
DA:191,1
DA:192,1
DA:193,1
DA:194,1
DA:197,1
DA:198,1
DA:201,0
DA:203,1
DA:207,385
DA:208,385
DA:212,150
DA:213,150
DA:217,1
DA:219,2
DA:220,2
DA:221,2
DA:226,62
DA:227,62
DA:229,62
DA:231,61
DA:232,5
DA:233,5
DA:236,56
DA:238,56
DA:239,56
DA:241,56
DA:242,0
DA:245,56
DA:246,7
DA:247,7
DA:250,56
DA:254,56
DA:256,112
DA:257,112
DA:262,20
DA:263,20
DA:267,21
DA:268,21
DA:273,4
DA:274,4
DA:275,4
DA:277,4
DA:279,4
DA:280,4
DA:282,4
DA:283,4
DA:284,4
DA:286,4
DA:290,3
DA:291,3
DA:292,3
DA:294,3
DA:296,3
DA:297,3
DA:299,3
DA:300,3
DA:301,3
DA:303,3
DA:307,3
DA:308,3
DA:309,3
DA:311,3
DA:312,3
DA:314,3
DA:315,3
DA:317,3
DA:321,12
DA:322,12
DA:323,12
DA:325,12
DA:327,12
DA:328,1
DA:331,11
DA:332,4
DA:335,7
DA:336,7
DA:338,7
DA:339,7
DA:341,7
DA:342,1
DA:343,1
DA:346,7
DA:350,4
DA:351,4
DA:352,4
DA:356,4
DA:357,4
DA:358,4
DA:362,7
DA:363,7
DA:364,7
DA:365,7
DA:366,7
DA:370,7
DA:371,7
DA:373,7
DA:374,6
DA:376,3
DA:377,3
DA:378,3
DA:380,3
DA:381,1
DA:382,1
DA:385,3
DA:390,2
DA:391,2
DA:392,2
DA:396,2
DA:397,2
DA:398,2
DA:402,1
DA:403,1
DA:404,1
DA:405,1
DA:409,1
DA:410,1
DA:411,1
DA:412,1
DA:417,2
DA:418,2
DA:423,1
DA:424,1
DA:429,2
DA:430,2
DA:432,2
DA:433,2
DA:438,2
DA:439,2
DA:440,2
DA:441,2
DA:442,2
DA:444,2
DA:445,2
DA:446,2
DA:447,2
DA:448,2
DA:451,2
DA:453,2
DA:454,2
DA:457,2
DA:458,2
DA:461,0
DA:463,0
DA:467,0
DA:468,0
DA:469,0
DA:470,0
DA:473,0
DA:474,0
DA:477,0
DA:487,33
DA:488,33
DA:492,2
DA:493,2
DA:498,4
DA:499,4
DA:501,4
DA:502,4
DA:503,4
DA:504,4
DA:506,4
DA:510,2
DA:511,2
DA:515,9
DA:516,9
DA:526,4
DA:527,4
DA:531,12
DA:532,12
DA:537,3
DA:538,3
DA:539,3
DA:540,3
DA:544,2
DA:545,2
DA:546,2
DA:547,2
DA:551,1
DA:552,1
DA:553,1
DA:554,1
DA:558,2
DA:559,2
DA:560,2
DA:561,2
DA:565,2
DA:566,2
DA:567,2
DA:568,2
DA:572,1
DA:573,1
DA:574,1
DA:575,2
DA:579,2
DA:580,2
DA:581,2
DA:582,2
DA:586,2
DA:587,2
DA:588,2
DA:589,2
DA:593,4
DA:594,4
DA:595,4
DA:596,4
DA:600,5
DA:601,5
DA:602,5
DA:603,5
DA:607,4
DA:608,4
DA:609,4
DA:610,4
DA:614,3
DA:615,3
DA:616,3
DA:617,3
DA:622,2
DA:623,2
DA:684,1
DA:686,1
LF:233
LH:218
end_of_record
TN:
SF:/home/essam/Documents/projects/nodecpp-rational/test/rational.test.cpp
FN:53,_ZN5utest7_assertEbPKc
FN:69,main
FN:89,_ZN5utest12loadTestDataEv
FN:315,_ZN5utest10testRunnerEv
FN:337,_ZN5utest8makeTestEPNS_4TestE
FN:369,_ZN5utest11verboseExitEv
FN:381,_ZN5utest5test1Ev
FN:387,_ZN5utest5test2Ev
FN:399,_ZN5utest5test3Ev
FN:417,_ZN5utest5test4Ev
FN:429,_ZN5utest5test5Ev
FN:438,_ZN5utest5test6Ev
FN:450,_ZN5utest5test7Ev
FN:482,_ZN5utest5test8Ev
FN:498,_ZN5utest5test9Ev
FN:523,_ZN5utest6test10Ev
FN:538,_ZN5utest6test11Ev
FN:563,_ZN5utest6test12Ev
FN:574,_ZN5utest6test13Ev
FN:582,_ZN5utest6test14Ev
FN:600,_ZN5utest6test15Ev
FN:615,_ZN5utest6test16Ev
FN:660,_ZN5utest6test17Ev
FN:668,_ZN5utest6test18Ev
FN:675,_ZN5utest6test19Ev
FN:685,_ZN5utest6test20Ev
FNDA:1,_ZN5utest11verboseExitEv
FNDA:1,_ZN5utest5test5Ev
FNDA:114,_ZN5utest7_assertEbPKc
FNDA:1,_ZN5utest5test3Ev
FNDA:1,_ZN5utest6test17Ev
FNDA:1,_ZN5utest6test15Ev
FNDA:1,_ZN5utest5test4Ev
FNDA:1,_ZN5utest6test20Ev
FNDA:1,_ZN5utest6test10Ev
FNDA:20,_ZN5utest8makeTestEPNS_4TestE
FNDA:1,_ZN5utest6test16Ev
FNDA:1,_ZN5utest12loadTestDataEv
FNDA:1,_ZN5utest10testRunnerEv
FNDA:1,_ZN5utest5test7Ev
FNDA:1,main
FNDA:1,_ZN5utest5test8Ev
FNDA:1,_ZN5utest6test19Ev
FNDA:1,_ZN5utest6test14Ev
FNDA:1,_ZN5utest6test12Ev
FNDA:1,_ZN5utest6test13Ev
FNDA:1,_ZN5utest6test11Ev
FNDA:1,_ZN5utest5test9Ev
FNDA:1,_ZN5utest5test1Ev
FNDA:1,_ZN5utest5test2Ev
FNDA:1,_ZN5utest6test18Ev
FNDA:1,_ZN5utest5test6Ev
FNF:26
FNH:26
DA:53,114
DA:54,114
DA:55,114
DA:69,1
DA:73,1
DA:74,1
DA:86,1
DA:89,1
DA:91,1
DA:92,1
DA:95,1
DA:97,1
DA:98,1
DA:100,1
DA:103,1
DA:105,1
DA:106,1
DA:107,1
DA:109,1
DA:112,1
DA:114,1
DA:115,1
DA:116,1
DA:118,1
DA:121,1
DA:123,1
DA:124,1
DA:125,1
DA:127,1
DA:130,1
DA:132,1
DA:133,1
DA:134,1
DA:136,1
DA:139,1
DA:141,1
DA:142,1
DA:143,1
DA:145,1
DA:148,1
DA:150,1
DA:151,1
DA:153,1
DA:156,1
DA:158,1
DA:159,1
DA:160,1
DA:162,1
DA:165,1
DA:167,1
DA:168,1
DA:169,1
DA:171,1
DA:174,1
DA:176,1
DA:177,1
DA:178,1
DA:180,1
DA:183,1
DA:185,1
DA:186,1
DA:187,1
DA:189,1
DA:192,1
DA:194,1
DA:195,1
DA:196,1
DA:198,1
DA:201,1
DA:203,1
DA:204,1
DA:206,1
DA:209,1
DA:211,1
DA:212,1
DA:213,1
DA:215,1
DA:218,1
DA:220,1
DA:221,1
DA:222,1
DA:224,1
DA:227,1
DA:229,1
DA:230,1
DA:231,1
DA:233,1
DA:236,1
DA:238,1
DA:239,1
DA:240,1
DA:242,1
DA:245,1
DA:247,1
DA:248,1
DA:250,1
DA:253,1
DA:255,1
DA:256,1
DA:257,1
DA:259,1
DA:262,1
DA:264,1
DA:265,1
DA:266,1
DA:268,1
DA:271,1
DA:273,1
DA:274,1
DA:276,1
DA:279,1
DA:281,1
DA:282,1
DA:283,1
DA:285,1
DA:288,1
DA:290,1
DA:291,1
DA:292,1
DA:294,1
DA:297,1
DA:299,1
DA:300,1
DA:301,1
DA:303,1
DA:306,1
DA:308,1
DA:309,1
DA:310,1
DA:312,1
DA:313,1
DA:315,1
DA:317,1
DA:318,1
DA:320,1
DA:321,6
DA:323,5
DA:324,5
DA:326,5
DA:328,5
DA:329,25
DA:330,20
DA:332,5
DA:334,1
DA:335,1
DA:337,20
DA:339,20
DA:341,20
DA:342,20
DA:344,20
DA:346,20
DA:347,20
DA:349,20
DA:350,20
DA:354,0
DA:355,0
DA:357,0
DA:358,0
DA:360,0
DA:361,0
DA:363,0
DA:364,0
DA:365,0
DA:367,20
DA:369,1
DA:370,1
DA:371,0
DA:372,0
DA:373,0
DA:374,0
DA:375,0
DA:376,0
DA:378,1
DA:381,1
DA:382,1
DA:383,1
DA:384,1
DA:387,1
DA:388,1
DA:389,1
DA:391,1
DA:392,1
DA:394,1
DA:395,1
DA:396,1
DA:399,1
DA:400,1
DA:401,1
DA:403,1
DA:404,1
DA:406,1
DA:407,1
DA:409,1
DA:410,1
DA:412,1
DA:413,1
DA:414,1
DA:417,1
DA:419,1
DA:420,0
DA:422,1
DA:423,0
DA:424,0
DA:425,0
DA:426,1
DA:429,1
DA:430,1
DA:431,1
DA:433,1
DA:434,1
DA:435,1
DA:438,1
DA:439,1
DA:441,1
DA:442,1
DA:444,1
DA:445,1
DA:446,1
DA:447,1
DA:450,1
DA:451,1
DA:452,1
DA:453,1
DA:455,1
DA:456,1
DA:457,1
DA:459,1
DA:460,1
DA:461,1
DA:463,1
DA:464,1
DA:465,1
DA:467,1
DA:468,1
DA:469,1
DA:471,1
DA:472,1
DA:473,1
DA:475,1
DA:476,1
DA:477,1
DA:479,1
DA:482,1
DA:483,1
DA:484,1
DA:487,1
DA:488,1
DA:489,0
DA:491,1
DA:492,0
DA:493,0
DA:494,0
DA:495,1
DA:498,1
DA:499,1
DA:501,1
DA:502,1
DA:503,1
DA:505,1
DA:506,1
DA:507,1
DA:509,1
DA:510,1
DA:511,1
DA:513,1
DA:514,1
DA:515,1
DA:517,1
DA:518,1
DA:519,1
DA:520,1
DA:523,1
DA:524,1
DA:527,1
DA:528,1
DA:529,0
DA:531,1
DA:532,0
DA:533,0
DA:534,0
DA:535,1
DA:538,1
DA:539,1
DA:541,1
DA:542,1
DA:543,1
DA:544,1
DA:546,1
DA:547,1
DA:548,1
DA:549,1
DA:551,1
DA:552,1
DA:553,1
DA:554,1
DA:556,1
DA:557,1
DA:558,1
DA:559,1
DA:560,1
DA:563,1
DA:564,1
DA:566,1
DA:567,1
DA:569,1
DA:570,1
DA:571,1
DA:574,1
DA:575,1
DA:577,1
DA:578,1
DA:579,1
DA:582,1
DA:583,1
DA:584,1
DA:586,1
DA:587,1
DA:589,1
DA:590,1
DA:592,1
DA:593,1
DA:595,1
DA:596,1
DA:597,1
DA:600,1
DA:601,1
DA:602,1
DA:604,1
DA:605,1
DA:607,1
DA:608,1
DA:610,1
DA:611,1
DA:612,1
DA:615,1
DA:616,1
DA:617,1
DA:618,1
DA:619,1
DA:620,1
DA:622,1
DA:623,1
DA:624,1
DA:625,1
DA:626,1
DA:628,1
DA:629,1
DA:630,1
DA:631,1
DA:632,1
DA:634,1
DA:635,1
DA:636,1
DA:637,1
DA:638,1
DA:640,1
DA:641,1
DA:642,1
DA:643,1
DA:644,1
DA:646,1
DA:647,1
DA:648,1
DA:649,1
DA:650,1
DA:652,1
DA:653,1
DA:654,1
DA:655,1
DA:656,1
DA:657,1
DA:660,1
DA:661,1
DA:662,1
DA:664,1
DA:665,1
DA:668,1
DA:669,1
DA:671,1
DA:672,1
DA:675,1
DA:677,1
DA:678,1
DA:680,1
DA:681,1
DA:682,1
DA:685,1
DA:686,1
DA:687,1
DA:689,1
DA:690,1
LF:391
LH:364
end_of_record
